; Function Attrs: mustprogress nofree nounwind willreturn memory(write, argmem: read, inaccessiblemem: readwrite) uwtable
define noalias noundef ptr @Cec_ManSatCreate(ptr noundef %0, ptr noundef %1) local_unnamed_addr #0 {
  %calloc = tail call dereferenceable_or_null(144) ptr @calloc(i64 1, i64 144)
  store ptr %1, ptr %calloc, align 8, !tbaa !3
  %3 = getelementptr inbounds nuw i8, ptr %calloc, i64 8
  store ptr %0, ptr %3, align 8, !tbaa !15
  %4 = getelementptr inbounds nuw i8, ptr %calloc, i64 40
  store i32 1, ptr %4, align 8, !tbaa !16
  %5 = getelementptr i8, ptr %0, i64 24
  %.val = load i32, ptr %5, align 8, !tbaa !17
  %6 = sext i32 %.val to i64
  %7 = tail call noalias ptr @calloc(i64 noundef %6, i64 noundef 4) #16
  %8 = getelementptr inbounds nuw i8, ptr %calloc, i64 48
  store ptr %7, ptr %8, align 8, !tbaa !34
  %9 = tail call noalias dereferenceable_or_null(16) ptr @malloc(i64 noundef 16) #17
  %10 = getelementptr inbounds nuw i8, ptr %9, i64 4
  store i32 0, ptr %10, align 4, !tbaa !35
  store i32 1000, ptr %9, align 8, !tbaa !37
  %11 = tail call noalias dereferenceable_or_null(8000) ptr @malloc(i64 noundef 8000) #17
  %12 = getelementptr inbounds nuw i8, ptr %9, i64 8
  store ptr %11, ptr %12, align 8, !tbaa !38
  %13 = getelementptr inbounds nuw i8, ptr %calloc, i64 56
  store ptr %9, ptr %13, align 8, !tbaa !39
  %14 = tail call noalias dereferenceable_or_null(16) ptr @malloc(i64 noundef 16) #17
  %15 = getelementptr inbounds nuw i8, ptr %14, i64 4
  store i32 0, ptr %15, align 4, !tbaa !35
  store i32 100, ptr %14, align 8, !tbaa !37
  %16 = tail call noalias dereferenceable_or_null(800) ptr @malloc(i64 noundef 800) #17
  %17 = getelementptr inbounds nuw i8, ptr %14, i64 8
  store ptr %16, ptr %17, align 8, !tbaa !38
  %18 = getelementptr inbounds nuw i8, ptr %calloc, i64 72
  store ptr %14, ptr %18, align 8, !tbaa !40
  %19 = tail call noalias dereferenceable_or_null(16) ptr @malloc(i64 noundef 16) #17
  %20 = getelementptr inbounds nuw i8, ptr %19, i64 4
  store i32 0, ptr %20, align 4, !tbaa !41
  store i32 100, ptr %19, align 8, !tbaa !42
  %21 = tail call noalias dereferenceable_or_null(400) ptr @malloc(i64 noundef 400) #17
  %22 = getelementptr inbounds nuw i8, ptr %19, i64 8
  store ptr %21, ptr %22, align 8, !tbaa !43
  %23 = getelementptr inbounds nuw i8, ptr %calloc, i64 80
  store ptr %19, ptr %23, align 8, !tbaa !44
  %24 = tail call noalias dereferenceable_or_null(16) ptr @malloc(i64 noundef 16) #17
  %25 = getelementptr inbounds nuw i8, ptr %24, i64 4
  store i32 0, ptr %25, align 4, !tbaa !41
  store i32 100, ptr %24, align 8, !tbaa !42
  %26 = tail call noalias dereferenceable_or_null(400) ptr @malloc(i64 noundef 400) #17
  %27 = getelementptr inbounds nuw i8, ptr %24, i64 8
  store ptr %26, ptr %27, align 8, !tbaa !43
  %28 = getelementptr inbounds nuw i8, ptr %calloc, i64 88
  store ptr %24, ptr %28, align 8, !tbaa !45
  ret ptr %calloc
}